; Function Attrs: mustprogress nofree norecurse nosync nounwind willreturn memory(argmem: write) uwtable
define dso_local void @init_revision_sources_with_stride(ptr noundef writeonly captures(none) initializes((0, 12), (16, 24)) %0, i32 noundef %1) local_unnamed_addr #0 {
  %spec.store.select = tail call i32 @llvm.umax.i32(i32 %1, i32 1)
  %3 = getelementptr inbounds nuw i8, ptr %0, i64 4
  store i32 %spec.store.select, ptr %3, align 4, !tbaa !4
  %4 = shl i32 %spec.store.select, 3
  %5 = udiv i32 524256, %4
  store i32 %5, ptr %0, align 8, !tbaa !11
  %6 = getelementptr inbounds nuw i8, ptr %0, i64 8
  store i32 0, ptr %6, align 8, !tbaa !12
  %7 = getelementptr inbounds nuw i8, ptr %0, i64 16
  store ptr null, ptr %7, align 8, !tbaa !13
  ret void
}